; Function Attrs: nounwind uwtable
define hidden void @je_pa_shard_do_deferred_work(ptr noundef %0, ptr noundef %1) local_unnamed_addr #0 {
  %3 = getelementptr inbounds nuw i8, ptr %1, i64 16
  %4 = load atomic i8, ptr %3 monotonic, align 1
  %5 = trunc i8 %4 to i1
  br i1 %5, label %6, label %8

6:                                                ; preds = %2
  %7 = getelementptr inbounds nuw i8, ptr %1, i64 62384
  tail call void @je_hpa_shard_do_deferred_work(ptr noundef %0, ptr noundef nonnull %7) #4
  br label %8

8:                                                ; preds = %6, %2
  ret void
}